target datalayout = "e-m:e-p270:32:32-p271:32:32-p272:64:64-i64:64-i128:128-f80:128-n8:16:32:64-S128"
target triple = "x86_64-pc-linux-gnu"

%struct.Abc_Frame_t_ = type { ptr, ptr, ptr, ptr, ptr, ptr, ptr, ptr, ptr, ptr, i32, i32, i32, i32, i32, ptr, float, float, i32, i32, ptr, ptr, ptr, double, double, ptr, ptr, ptr, ptr, ptr, ptr, ptr, ptr, ptr, ptr, ptr, ptr, float, ptr, i32, ptr, ptr, ptr, ptr, ptr, i32, i32, i32, i32, i32, i32, ptr, ptr, ptr, ptr, ptr, ptr, i32, i32, ptr, ptr, ptr, ptr, ptr, ptr, ptr, ptr, ptr, ptr, ptr, ptr, ptr, ptr, ptr, ptr, ptr, ptr, ptr, ptr, ptr, ptr, ptr, ptr, ptr, ptr, ptr, ptr, ptr, ptr }

@globalUtilOptind = external global i32, align 4
@.str.113 = private unnamed_addr constant [4 x i8] c"yes\00", align 1
@.str.114 = private unnamed_addr constant [3 x i8] c"no\00", align 1
@.str.142 = private unnamed_addr constant [16 x i8] c"Empty network.\0A\00", align 1
@.str.233 = private unnamed_addr constant [34 x i8] c"\09-h     : print the help massage\0A\00", align 1
@.str.251 = private unnamed_addr constant [47 x i8] c"\09         writes the network into a BLIF file\0A\00", align 1
@.str.256 = private unnamed_addr constant [5 x i8] c"Sjah\00", align 1
@.str.257 = private unnamed_addr constant [56 x i8] c"Command line switch \22-S\22 should be followed by string.\0A\00", align 1
@.str.258 = private unnamed_addr constant [92 x i8] c"Command line switch \22-S\22 should be followed by a 2- or 3-char string (e.g. \2244\22 or \22555\22).\0A\00", align 1
@.str.259 = private unnamed_addr constant [42 x i8] c"usage: write_blif [-S str] [-jah] <file>\0A\00", align 1
@.str.260 = private unnamed_addr constant [64 x i8] c"\09-S str : string representing the LUT structure [default = %s]\0A\00", align 1
@.str.261 = private unnamed_addr constant [9 x i8] c"not used\00", align 1
@.str.262 = private unnamed_addr constant [55 x i8] c"\09-j     : enables special BLIF writing [default = %s]\0A\00", align 1
@.str.263 = private unnamed_addr constant [79 x i8] c"\09-a     : enables hierarchical BLIF writing for LUT structures [default = %s]\0A\00", align 1
@.str.264 = private unnamed_addr constant [59 x i8] c"\09file   : the name of the file to write (extension .blif)\0A\00", align 1

; Function Attrs: nounwind uwtable
define internal i32 @IoCommandWriteBlif(ptr noundef %0, i32 noundef %1, ptr noundef %2) #0 {
  %4 = alloca i32, align 4
  %5 = alloca ptr, align 8
  %6 = alloca i32, align 4
  %7 = alloca ptr, align 8
  %8 = alloca ptr, align 8
  %9 = alloca ptr, align 8
  %10 = alloca i32, align 4
  %11 = alloca i32, align 4
  %12 = alloca i32, align 4
  %13 = alloca i32, align 4
  store ptr %0, ptr %5, align 8, !tbaa !3
  store i32 %1, ptr %6, align 4, !tbaa !8
  store ptr %2, ptr %7, align 8, !tbaa !10
  call void @llvm.lifetime.start.p0(i64 8, ptr %8) #11
  call void @llvm.lifetime.start.p0(i64 8, ptr %9) #11
  store ptr null, ptr %9, align 8, !tbaa !14
  call void @llvm.lifetime.start.p0(i64 4, ptr %10) #11
  call void @llvm.lifetime.start.p0(i64 4, ptr %11) #11
  store i32 0, ptr %11, align 4, !tbaa !8
  call void @llvm.lifetime.start.p0(i64 4, ptr %12) #11
  store i32 0, ptr %12, align 4, !tbaa !8
  call void (...) @Extra_UtilGetoptReset()
  br label %14

14:                                               ; preds = %51, %3
  %15 = load i32, ptr %6, align 4, !tbaa !8
  %16 = load ptr, ptr %7, align 8, !tbaa !10
  %17 = call i32 @Extra_UtilGetopt(i32 noundef %15, ptr noundef %16, ptr noundef @.str.256)
  store i32 %17, ptr %10, align 4, !tbaa !8
  %18 = icmp ne i32 %17, -1
  br i1 %18, label %19, label %52

19:                                               ; preds = %14
  %20 = load i32, ptr %10, align 4, !tbaa !8
  switch i32 %20, label %50 [
    i32 83, label %21
    i32 106, label %43
    i32 97, label %46
    i32 104, label %49
  ]

21:                                               ; preds = %19
  %22 = load i32, ptr @globalUtilOptind, align 4, !tbaa !8
  %23 = load i32, ptr %6, align 4, !tbaa !8
  %24 = icmp sge i32 %22, %23
  br i1 %24, label %25, label %26

25:                                               ; preds = %21
  call void (i32, ptr, ...) @Abc_Print(i32 noundef -1, ptr noundef @.str.257)
  br label %92

26:                                               ; preds = %21
  %27 = load ptr, ptr %7, align 8, !tbaa !10
  %28 = load i32, ptr @globalUtilOptind, align 4, !tbaa !8
  %29 = sext i32 %28 to i64
  %30 = getelementptr inbounds ptr, ptr %27, i64 %29
  %31 = load ptr, ptr %30, align 8, !tbaa !14
  store ptr %31, ptr %9, align 8, !tbaa !14
  %32 = load i32, ptr @globalUtilOptind, align 4, !tbaa !8
  %33 = add nsw i32 %32, 1
  store i32 %33, ptr @globalUtilOptind, align 4, !tbaa !8
  %34 = load ptr, ptr %9, align 8, !tbaa !14
  %35 = call i64 @strlen(ptr noundef %34) #12
  %36 = icmp ne i64 %35, 2
  br i1 %36, label %37, label %42

37:                                               ; preds = %26
  %38 = load ptr, ptr %9, align 8, !tbaa !14
  %39 = call i64 @strlen(ptr noundef %38) #12
  %40 = icmp ne i64 %39, 3
  br i1 %40, label %41, label %42

41:                                               ; preds = %37
  call void (i32, ptr, ...) @Abc_Print(i32 noundef -1, ptr noundef @.str.258)
  br label %92

42:                                               ; preds = %37, %26
  br label %51

43:                                               ; preds = %19
  %44 = load i32, ptr %11, align 4, !tbaa !8
  %45 = xor i32 %44, 1
  store i32 %45, ptr %11, align 4, !tbaa !8
  br label %51

46:                                               ; preds = %19
  %47 = load i32, ptr %12, align 4, !tbaa !8
  %48 = xor i32 %47, 1
  store i32 %48, ptr %12, align 4, !tbaa !8
  br label %51

49:                                               ; preds = %19
  br label %92

50:                                               ; preds = %19
  br label %92

51:                                               ; preds = %46, %43, %42
  br label %14, !llvm.loop !77

52:                                               ; preds = %14
  %53 = load ptr, ptr %5, align 8, !tbaa !3
  %54 = getelementptr inbounds nuw %struct.Abc_Frame_t_, ptr %53, i32 0, i32 6
  %55 = load ptr, ptr %54, align 8, !tbaa !44
  %56 = icmp eq ptr %55, null
  br i1 %56, label %57, label %62

57:                                               ; preds = %52
  %58 = load ptr, ptr %5, align 8, !tbaa !3
  %59 = getelementptr inbounds nuw %struct.Abc_Frame_t_, ptr %58, i32 0, i32 20
  %60 = load ptr, ptr %59, align 8, !tbaa !45
  %61 = call i32 (ptr, ptr, ...) @fprintf(ptr noundef %60, ptr noundef @.str.142) #11
  store i32 0, ptr %4, align 4
  store i32 1, ptr %13, align 4
  br label %134

62:                                               ; preds = %52
  %63 = load i32, ptr %6, align 4, !tbaa !8
  %64 = load i32, ptr @globalUtilOptind, align 4, !tbaa !8
  %65 = add nsw i32 %64, 1
  %66 = icmp ne i32 %63, %65
  br i1 %66, label %67, label %68

67:                                               ; preds = %62
  br label %92

68:                                               ; preds = %62
  %69 = load ptr, ptr %7, align 8, !tbaa !10
  %70 = load i32, ptr @globalUtilOptind, align 4, !tbaa !8
  %71 = sext i32 %70 to i64
  %72 = getelementptr inbounds ptr, ptr %69, i64 %71
  %73 = load ptr, ptr %72, align 8, !tbaa !14
  store ptr %73, ptr %8, align 8, !tbaa !14
  %74 = load i32, ptr %11, align 4, !tbaa !8
  %75 = icmp ne i32 %74, 0
  br i1 %75, label %79, label %76

76:                                               ; preds = %68
  %77 = load ptr, ptr %9, align 8, !tbaa !14
  %78 = icmp ne ptr %77, null
  br i1 %78, label %79, label %86

79:                                               ; preds = %76, %68
  %80 = load ptr, ptr %5, align 8, !tbaa !3
  %81 = getelementptr inbounds nuw %struct.Abc_Frame_t_, ptr %80, i32 0, i32 6
  %82 = load ptr, ptr %81, align 8, !tbaa !44
  %83 = load ptr, ptr %8, align 8, !tbaa !14
  %84 = load ptr, ptr %9, align 8, !tbaa !14
  %85 = load i32, ptr %12, align 4, !tbaa !8
  call void @Io_WriteBlifSpecial(ptr noundef %82, ptr noundef %83, ptr noundef %84, i32 noundef %85)
  br label %91

86:                                               ; preds = %76
  %87 = load ptr, ptr %5, align 8, !tbaa !3
  %88 = getelementptr inbounds nuw %struct.Abc_Frame_t_, ptr %87, i32 0, i32 6
  %89 = load ptr, ptr %88, align 8, !tbaa !44
  %90 = load ptr, ptr %8, align 8, !tbaa !14
  call void @Io_Write(ptr noundef %89, ptr noundef %90, i32 noundef 4)
  br label %91

91:                                               ; preds = %86, %79
  store i32 0, ptr %4, align 4
  store i32 1, ptr %13, align 4
  br label %134

92:                                               ; preds = %67, %50, %49, %41, %25
  %93 = load ptr, ptr %5, align 8, !tbaa !3
  %94 = getelementptr inbounds nuw %struct.Abc_Frame_t_, ptr %93, i32 0, i32 21
  %95 = load ptr, ptr %94, align 8, !tbaa !24
  %96 = call i32 (ptr, ptr, ...) @fprintf(ptr noundef %95, ptr noundef @.str.259) #11
  %97 = load ptr, ptr %5, align 8, !tbaa !3
  %98 = getelementptr inbounds nuw %struct.Abc_Frame_t_, ptr %97, i32 0, i32 21
  %99 = load ptr, ptr %98, align 8, !tbaa !24
  %100 = call i32 (ptr, ptr, ...) @fprintf(ptr noundef %99, ptr noundef @.str.251) #11
  %101 = load ptr, ptr %5, align 8, !tbaa !3
  %102 = getelementptr inbounds nuw %struct.Abc_Frame_t_, ptr %101, i32 0, i32 21
  %103 = load ptr, ptr %102, align 8, !tbaa !24
  %104 = load ptr, ptr %9, align 8, !tbaa !14
  %105 = icmp ne ptr %104, null
  br i1 %105, label %106, label %108

106:                                              ; preds = %92
  %107 = load ptr, ptr %9, align 8, !tbaa !14
  br label %109

108:                                              ; preds = %92
  br label %109

109:                                              ; preds = %108, %106
  %110 = phi ptr [ %107, %106 ], [ @.str.261, %108 ]
  %111 = call i32 (ptr, ptr, ...) @fprintf(ptr noundef %103, ptr noundef @.str.260, ptr noundef %110) #11
  %112 = load ptr, ptr %5, align 8, !tbaa !3
  %113 = getelementptr inbounds nuw %struct.Abc_Frame_t_, ptr %112, i32 0, i32 21
  %114 = load ptr, ptr %113, align 8, !tbaa !24
  %115 = load i32, ptr %11, align 4, !tbaa !8
  %116 = icmp ne i32 %115, 0
  %117 = select i1 %116, ptr @.str.113, ptr @.str.114
  %118 = call i32 (ptr, ptr, ...) @fprintf(ptr noundef %114, ptr noundef @.str.262, ptr noundef %117) #11
  %119 = load ptr, ptr %5, align 8, !tbaa !3
  %120 = getelementptr inbounds nuw %struct.Abc_Frame_t_, ptr %119, i32 0, i32 21
  %121 = load ptr, ptr %120, align 8, !tbaa !24
  %122 = load i32, ptr %12, align 4, !tbaa !8
  %123 = icmp ne i32 %122, 0
  %124 = select i1 %123, ptr @.str.113, ptr @.str.114
  %125 = call i32 (ptr, ptr, ...) @fprintf(ptr noundef %121, ptr noundef @.str.263, ptr noundef %124) #11
  %126 = load ptr, ptr %5, align 8, !tbaa !3
  %127 = getelementptr inbounds nuw %struct.Abc_Frame_t_, ptr %126, i32 0, i32 21
  %128 = load ptr, ptr %127, align 8, !tbaa !24
  %129 = call i32 (ptr, ptr, ...) @fprintf(ptr noundef %128, ptr noundef @.str.233) #11
  %130 = load ptr, ptr %5, align 8, !tbaa !3
  %131 = getelementptr inbounds nuw %struct.Abc_Frame_t_, ptr %130, i32 0, i32 21
  %132 = load ptr, ptr %131, align 8, !tbaa !24
  %133 = call i32 (ptr, ptr, ...) @fprintf(ptr noundef %132, ptr noundef @.str.264) #11
  store i32 1, ptr %4, align 4
  store i32 1, ptr %13, align 4
  br label %134

134:                                              ; preds = %109, %91, %57
  call void @llvm.lifetime.end.p0(i64 4, ptr %12) #11
  call void @llvm.lifetime.end.p0(i64 4, ptr %11) #11
  call void @llvm.lifetime.end.p0(i64 4, ptr %10) #11
  call void @llvm.lifetime.end.p0(i64 8, ptr %9) #11
  call void @llvm.lifetime.end.p0(i64 8, ptr %8) #11
  %135 = load i32, ptr %4, align 4
  ret i32 %135
}