; Function Attrs: nounwind uwtable
define internal range(i32 0, 2) i32 @IoCommandWriteBlif(ptr noundef readonly captures(none) %0, i32 noundef %1, ptr noundef %2) #0 {
  tail call void (...) @Extra_UtilGetoptReset() #18
  br label %.outer

.outer:                                           ; preds = %8, %3
  %.036.ph = phi ptr [ %11, %8 ], [ null, %3 ]
  %.033.ph = phi i32 [ %.033.ph91, %8 ], [ 0, %3 ]
  %.0.ph = phi i32 [ %.0, %8 ], [ 0, %3 ]
  br label %.outer90

.outer90:                                         ; preds = %.outer, %15
  %.033.ph91 = phi i32 [ %.033.ph, %.outer ], [ %16, %15 ]
  %.0.ph92 = phi i32 [ %.0.ph, %.outer ], [ %.0, %15 ]
  br label %4

4:                                                ; preds = %.outer90, %17
  %.0 = phi i32 [ %18, %17 ], [ %.0.ph92, %.outer90 ]
  %5 = tail call i32 @Extra_UtilGetopt(i32 noundef %1, ptr noundef %2, ptr noundef nonnull @.str.256) #18
  switch i32 %5, label %.loopexit [
    i32 -1, label %19
    i32 83, label %6
    i32 106, label %15
    i32 97, label %17
  ]

6:                                                ; preds = %4
  %7 = load i32, ptr @globalUtilOptind, align 4, !tbaa !3
  %.not43 = icmp slt i32 %7, %1
  br i1 %.not43, label %8, label %.loopexit.sink.split

8:                                                ; preds = %6
  %9 = sext i32 %7 to i64
  %10 = getelementptr inbounds ptr, ptr %2, i64 %9
  %11 = load ptr, ptr %10, align 8, !tbaa !9
  %12 = add nsw i32 %7, 1
  store i32 %12, ptr @globalUtilOptind, align 4, !tbaa !3
  %13 = tail call i64 @strlen(ptr noundef nonnull dereferenceable(1) %11) #19
  %14 = and i64 %13, -2
  %switch = icmp eq i64 %14, 2
  br i1 %switch, label %.outer, label %.loopexit.sink.split, !llvm.loop !76

15:                                               ; preds = %4
  %16 = xor i32 %.033.ph91, 1
  br label %.outer90, !llvm.loop !76

17:                                               ; preds = %4
  %18 = xor i32 %.0, 1
  br label %4, !llvm.loop !76

19:                                               ; preds = %4
  %20 = getelementptr inbounds nuw i8, ptr %0, i64 48
  %21 = load ptr, ptr %20, align 8, !tbaa !49
  %22 = icmp eq ptr %21, null
  br i1 %22, label %23, label %27

23:                                               ; preds = %19
  %24 = getelementptr inbounds nuw i8, ptr %0, i64 128
  %25 = load ptr, ptr %24, align 8, !tbaa !50
  %26 = tail call i64 @fwrite(ptr nonnull @.str.142, i64 15, i64 1, ptr %25)
  br label %56

27:                                               ; preds = %19
  %28 = load i32, ptr @globalUtilOptind, align 4, !tbaa !3
  %29 = add nsw i32 %28, 1
  %.not42 = icmp eq i32 %1, %29
  br i1 %.not42, label %30, label %.loopexit

30:                                               ; preds = %27
  %31 = sext i32 %28 to i64
  %32 = getelementptr inbounds ptr, ptr %2, i64 %31
  %33 = load ptr, ptr %32, align 8, !tbaa !9
  %34 = icmp ne i32 %.033.ph91, 0
  %35 = icmp ne ptr %.036.ph, null
  %or.cond = or i1 %34, %35
  br i1 %or.cond, label %36, label %37

36:                                               ; preds = %30
  tail call void @Io_WriteBlifSpecial(ptr noundef nonnull %21, ptr noundef %33, ptr noundef %.036.ph, i32 noundef %.0) #18
  br label %56

37:                                               ; preds = %30
  tail call void @Io_Write(ptr noundef nonnull %21, ptr noundef %33, i32 noundef 4) #18
  br label %56

.loopexit.sink.split:                             ; preds = %8, %6
  %.str.258.sink = phi ptr [ @.str.257, %6 ], [ @.str.258, %8 ]
  %.137.ph = phi ptr [ %.036.ph, %6 ], [ %11, %8 ]
  tail call void (i32, ptr, ...) @Abc_Print(i32 noundef -1, ptr noundef nonnull %.str.258.sink)
  br label %.loopexit

.loopexit:                                        ; preds = %4, %.loopexit.sink.split, %27
  %.137 = phi ptr [ %.036.ph, %27 ], [ %.137.ph, %.loopexit.sink.split ], [ %.036.ph, %4 ]
  %38 = getelementptr inbounds nuw i8, ptr %0, i64 136
  %39 = load ptr, ptr %38, align 8, !tbaa !34
  %40 = tail call i64 @fwrite(ptr nonnull @.str.259, i64 41, i64 1, ptr %39)
  %41 = load ptr, ptr %38, align 8, !tbaa !34
  %42 = tail call i64 @fwrite(ptr nonnull @.str.251, i64 46, i64 1, ptr %41)
  %43 = load ptr, ptr %38, align 8, !tbaa !34
  %.not46 = icmp eq ptr %.137, null
  %44 = select i1 %.not46, ptr @.str.261, ptr %.137
  %45 = tail call i32 (ptr, ptr, ...) @fprintf(ptr noundef %43, ptr noundef nonnull @.str.260, ptr noundef nonnull %44) #18
  %46 = load ptr, ptr %38, align 8, !tbaa !34
  %.not47 = icmp eq i32 %.033.ph91, 0
  %47 = select i1 %.not47, ptr @.str.114, ptr @.str.113
  %48 = tail call i32 (ptr, ptr, ...) @fprintf(ptr noundef %46, ptr noundef nonnull @.str.262, ptr noundef nonnull %47) #18
  %49 = load ptr, ptr %38, align 8, !tbaa !34
  %.not48 = icmp eq i32 %.0, 0
  %50 = select i1 %.not48, ptr @.str.114, ptr @.str.113
  %51 = tail call i32 (ptr, ptr, ...) @fprintf(ptr noundef %49, ptr noundef nonnull @.str.263, ptr noundef nonnull %50) #18
  %52 = load ptr, ptr %38, align 8, !tbaa !34
  %53 = tail call i64 @fwrite(ptr nonnull @.str.233, i64 33, i64 1, ptr %52)
  %54 = load ptr, ptr %38, align 8, !tbaa !34
  %55 = tail call i64 @fwrite(ptr nonnull @.str.264, i64 58, i64 1, ptr %54)
  br label %56

56:                                               ; preds = %36, %37, %.loopexit, %23
  %.035 = phi i32 [ 1, %.loopexit ], [ 0, %23 ], [ 0, %37 ], [ 0, %36 ]
  ret i32 %.035
}